Certificate:
    Data:
        Version: 1 (0x0)
        Serial Number: 4 (0x4)
    Signature Algorithm: sha256WithRSAEncryption
        Issuer: C=SE, ST=Some-State, L=Umea, O=Internet Widgits Pty Ltd, OU=TestHTTP2
        Validity
            Not Before: Feb  9 16:09:10 2015 GMT
            Not After : Jan 22 16:09:10 2026 GMT
        Subject: CN=www.myexample.com
        Subject Public Key Info:
            Public Key Algorithm: rsaEncryption
                Public-Key: (2048 bit)
                Modulus:
                    00:dd:11:58:d9:27:6c:e0:78:39:e4:3e:9f:b6:79:
                    d8:31:7c:20:96:ca:7c:c9:44:38:58:e9:93:33:03:
                    cf:ec:15:ec:a9:2b:3f:cb:b9:46:e2:0f:1a:65:0d:
                    cc:86:a6:1d:91:98:cd:9a:5e:db:53:cb:f8:e4:54:
                    98:72:21:b1:4a:19:32:be:06:7c:14:e5:02:fa:05:
                    1e:ba:db:77:6b:55:cf:1e:51:4a:a7:0b:38:fe:9b:
                    27:cc:cf:cf:d6:21:97:8c:b9:d4:73:19:7a:03:25:
                    5e:4e:3c:31:38:c0:f1:32:83:6b:5a:61:99:fb:62:
                    6d:c4:2c:34:2d:e5:cd:f9:19:88:5e:9e:67:61:36:
                    05:1e:9c:f0:b8:ac:fb:7f:64:2f:3e:2b:10:d9:f6:
                    9d:9b:4b:a2:d4:fc:e9:bb:5e:34:96:f7:21:ea:82:
                    4a:48:85:d7:d8:0c:82:3a:17:04:10:fa:46:80:7e:
                    75:4f:ac:59:4d:36:ba:53:bc:6f:43:60:bb:a5:49:
                    74:8d:af:35:25:01:d7:c9:0b:d9:8a:5d:f1:2d:a2:
                    e0:fd:b8:75:aa:79:82:a9:f1:07:4d:82:e4:68:33:
                    fc:c0:38:8d:c6:b3:22:84:90:53:a1:b1:1c:ff:15:
                    d3:73:91:72:1f:a3:1e:6a:3e:30:ab:3b:6d:8e:1a:
                    14:09
                Exponent: 65537 (0x10001)
    Signature Algorithm: sha256WithRSAEncryption
         c0:ca:34:e1:5b:c8:30:da:7d:92:50:4e:e6:0d:57:d2:ad:8e:
         6a:b9:62:d4:f5:91:7b:45:66:d8:4f:05:69:8d:18:19:f9:45:
         ab:c8:75:9f:e7:f5:6d:d0:07:2e:a2:b8:a8:b8:fd:69:20:16:
         d0:be:3a:70:2e:a4:b3:65:36:f6:7f:1c:d3:2d:7f:b9:fa:0c:
         3c:c9:bc:5d:4d:ee:b9:7c:76:4d:e4:79:a4:45:0e:1e:b1:31:
         79:89:9c:a6:11:69:a6:e6:9a:4a:16:b5:c5:f9:69:18:92:6a:
         3b:1c:be:f5:cb:18:dd:6b:2b:cd:29:c3:50:26:e7:ac:77:af:
         94:79:bb:6f:40:2b:de:a7:c5:eb:91:b4:3b:40:97:d9:8b:46:
         0d:46:18:a5:bb:66:c6:2e:bc:f5:9e:3f:18:b2:56:c4:a1:25:
         10:dd:91:d0:16:d7:88:19:c3:a6:c0:c9:6f:c9:2e:d3:25:bc:
         8f:24:19:fc:c6:ec:60:80:58:52:cb:8c:88:97:aa:4f:9f:63:
         c5:9c:20:c7:83:99:60:fd:ae:27:09:73:ff:6e:d9:f2:a3:82:
         95:c0:65:0c:88:56:2c:2d:f5:2a:95:1a:9f:5f:6c:8d:a1:7d:
         24:52:dc:c7:ba:3c:4a:7a:35:a3:a7:a9:89:54:7d:cc:1d:5a:
         20:93:a0:31
-----BEGIN CERTIFICATE-----
MIIC+DCCAeACAQQwDQYJKoZIhvcNAQELBQAwaDELMAkGA1UEBhMCU0UxEzARBgNV
BAgMClNvbWUtU3RhdGUxDTALBgNVBAcMBFVtZWExITAfBgNVBAoMGEludGVybmV0
IFdpZGdpdHMgUHR5IEx0ZDESMBAGA1UECwwJVGVzdEhUVFAyMB4XDTE1MDIwOTE2
MDkxMFoXDTI2MDEyMjE2MDkxMFowHDEaMBgGA1UEAxMRd3d3Lm15ZXhhbXBsZS5j
b20wggEiMA0GCSqGSIb3DQEBAQUAA4IBDwAwggEKAoIBAQDdEVjZJ2zgeDnkPp+2
edgxfCCWynzJRDhY6ZMzA8/sFeypKz/LuUbiDxplDcyGph2RmM2aXttTy/jkVJhy
IbFKGTK+BnwU5QL6BR6623drVc8eUUqnCzj+myfMz8/WIZeMudRzGXoDJV5OPDE4
wPEyg2taYZn7Ym3ELDQt5c35GYhenmdhNgUenPC4rPt/ZC8+KxDZ9p2bS6LU/Om7
XjSW9yHqgkpIhdfYDII6FwQQ+kaAfnVPrFlNNrpTvG9DYLulSXSNrzUlAdfJC9mK
XfEtouD9uHWqeYKp8QdNguRoM/zAOI3GsyKEkFOhsRz/FdNzkXIfox5qPjCrO22O
GhQJAgMBAAEwDQYJKoZIhvcNAQELBQADggEBAMDKNOFbyDDafZJQTuYNV9Ktjmq5
YtT1kXtFZthPBWmNGBn5RavIdZ/n9W3QBy6iuKi4/WkgFtC+OnAupLNlNvZ/HNMt
f7n6DDzJvF1N7rl8dk3keaRFDh6xMXmJnKYRaabmmkoWtcX5aRiSajscvvXLGN1r
K80pw1Am56x3r5R5u29AK96nxeuRtDtAl9mLRg1GGKW7ZsYuvPWePxiyVsShJRDd
kdAW14gZw6bAyW/JLtMlvI8kGfzG7GCAWFLLjIiXqk+fY8WcIMeDmWD9ricJc/9u
2fKjgpXAZQyIViwt9SqVGp9fbI2hfSRS3Me6PEp6NaOnqYlUfcwdWiCToDE=
-----END CERTIFICATE-----
