Certificate:
    Data:
        Version: 1 (0x0)
        Serial Number: 3 (0x3)
    Signature Algorithm: sha256WithRSAEncryption
        Issuer: C=SE, ST=Some-State, L=Umea, O=Internet Widgits Pty Ltd, OU=TestHTTP2
        Validity
            Not Before: Feb  9 16:08:32 2015 GMT
            Not After : Jan 22 16:08:32 2026 GMT
        Subject: CN=www.example.com
        Subject Public Key Info:
            Public Key Algorithm: rsaEncryption
                Public-Key: (2048 bit)
                Modulus:
                    00:da:d6:67:87:01:dd:47:29:8b:9d:1b:71:35:8c:
                    2e:3f:6f:c6:28:f7:c1:68:72:53:32:29:f1:f4:36:
                    96:c1:0a:fb:dc:dc:f2:a9:f0:f5:77:e8:fb:34:55:
                    4f:5c:c4:a1:21:9d:61:95:f6:da:89:b7:e3:2c:8e:
                    b9:32:fa:9d:3c:03:ea:cd:b8:d8:b2:f6:21:92:68:
                    fd:12:6e:9a:33:cc:d4:64:43:98:6d:a0:7e:2c:6a:
                    07:3e:73:38:07:9e:74:b4:af:f7:60:bf:06:70:a5:
                    e9:b7:f0:a3:98:ed:b2:82:53:cb:16:4f:23:97:25:
                    d0:a8:af:64:08:f8:2d:8f:78:6f:2e:b5:b8:5f:56:
                    88:1a:ce:a1:51:95:7a:33:41:da:f6:95:26:99:03:
                    5e:11:43:2e:5f:4e:64:16:42:2c:7a:7f:27:ea:5d:
                    ce:4b:72:99:a2:2b:b6:9e:85:9c:a0:9f:7e:ab:07:
                    c8:88:0c:1d:e4:34:91:ca:bd:8e:e2:8e:fe:70:cf:
                    6d:b4:bf:97:d3:dc:92:86:89:54:09:a5:8a:ff:c9:
                    74:30:c1:ce:1f:11:6a:ce:e9:03:2b:20:33:c9:32:
                    f6:2e:bc:f7:2a:63:c9:5d:81:ce:d9:a1:eb:13:74:
                    26:16:f5:48:9a:47:4a:dd:14:66:62:00:ae:2f:b4:
                    be:83
                Exponent: 65537 (0x10001)
    Signature Algorithm: sha256WithRSAEncryption
         8c:e6:18:e3:f8:81:7d:d7:17:73:be:ca:99:b2:c8:c5:ad:77:
         f3:4e:3c:95:65:f2:43:f6:a2:a4:04:2a:45:8a:cf:21:cf:d8:
         a6:07:67:50:0b:2f:09:2d:48:c7:17:f0:76:af:b6:e8:d1:cb:
         ee:f9:7b:37:73:4e:77:a1:f3:73:be:b5:53:c5:ea:e1:7d:03:
         3e:77:cc:53:11:6e:c0:c3:d3:28:3a:12:e7:67:d8:36:58:48:
         1a:f6:11:3a:08:b0:b6:dd:ac:27:4d:a5:e4:26:95:33:e3:5d:
         5c:48:24:60:ef:f5:e7:ca:3a:14:00:9f:6d:b9:4a:18:ad:d8:
         55:f4:33:a2:d3:ec:4e:a1:c9:0c:7d:34:ca:13:ae:ba:8c:16:
         d4:94:d9:7b:70:5f:84:39:6e:7b:99:b7:a3:79:6c:ed:1a:2b:
         12:52:08:1f:92:5f:4e:e6:5f:64:a2:03:0c:f1:cb:aa:a5:81:
         b0:80:a2:29:9b:0b:55:76:25:43:b2:3c:8e:17:6b:ac:89:5f:
         80:4e:74:02:3a:32:64:d9:c8:fa:2f:55:bb:8d:78:40:41:ba:
         51:b9:2a:92:9c:9f:1b:b5:f5:90:5a:58:70:5a:7b:36:79:eb:
         e0:7c:ac:64:ff:9e:93:d1:4c:07:22:ad:3d:ec:10:46:8a:e1:
         eb:a1:86:9e
-----BEGIN CERTIFICATE-----
MIIC9jCCAd4CAQMwDQYJKoZIhvcNAQELBQAwaDELMAkGA1UEBhMCU0UxEzARBgNV
BAgMClNvbWUtU3RhdGUxDTALBgNVBAcMBFVtZWExITAfBgNVBAoMGEludGVybmV0
IFdpZGdpdHMgUHR5IEx0ZDESMBAGA1UECwwJVGVzdEhUVFAyMB4XDTE1MDIwOTE2
MDgzMloXDTI2MDEyMjE2MDgzMlowGjEYMBYGA1UEAxMPd3d3LmV4YW1wbGUuY29t
MIIBIjANBgkqhkiG9w0BAQEFAAOCAQ8AMIIBCgKCAQEA2tZnhwHdRymLnRtxNYwu
P2/GKPfBaHJTMinx9DaWwQr73NzyqfD1d+j7NFVPXMShIZ1hlfbaibfjLI65Mvqd
PAPqzbjYsvYhkmj9Em6aM8zUZEOYbaB+LGoHPnM4B550tK/3YL8GcKXpt/CjmO2y
glPLFk8jlyXQqK9kCPgtj3hvLrW4X1aIGs6hUZV6M0Ha9pUmmQNeEUMuX05kFkIs
en8n6l3OS3KZoiu2noWcoJ9+qwfIiAwd5DSRyr2O4o7+cM9ttL+X09ySholUCaWK
/8l0MMHOHxFqzukDKyAzyTL2Lrz3KmPJXYHO2aHrE3QmFvVImkdK3RRmYgCuL7S+
gwIDAQABMA0GCSqGSIb3DQEBCwUAA4IBAQCM5hjj+IF91xdzvsqZssjFrXfzTjyV
ZfJD9qKkBCpFis8hz9imB2dQCy8JLUjHF/B2r7bo0cvu+Xs3c053ofNzvrVTxerh
fQM+d8xTEW7Aw9MoOhLnZ9g2WEga9hE6CLC23awnTaXkJpUz411cSCRg7/XnyjoU
AJ9tuUoYrdhV9DOi0+xOockMfTTKE666jBbUlNl7cF+EOW57mbejeWztGisSUggf
kl9O5l9kogMM8cuqpYGwgKIpmwtVdiVDsjyOF2usiV+ATnQCOjJk2cj6L1W7jXhA
QbpRuSqSnJ8btfWQWlhwWns2eevgfKxk/56T0UwHIq097BBGiuHroYae
-----END CERTIFICATE-----
