Certificate:
    Data:
        Version: 1 (0x0)
        Serial Number: 2 (0x2)
    Signature Algorithm: sha256WithRSAEncryption
        Issuer: C=SE, ST=Some-State, L=Umea, O=Internet Widgits Pty Ltd, OU=TestHTTP2
        Validity
            Not Before: Feb  9 16:06:42 2015 GMT
            Not After : Jan 22 16:06:42 2026 GMT
        Subject: C=SE, ST=Vasterbotten, O=Zunzun AB, CN=www.example.com
        Subject Public Key Info:
            Public Key Algorithm: rsaEncryption
                Public-Key: (2048 bit)
                Modulus:
                    00:f2:5a:7c:5b:fa:14:3b:18:d0:09:cb:75:7c:5e:
                    b3:6d:aa:4b:6b:f4:d1:87:ab:57:ff:c4:39:63:20:
                    ed:63:33:8f:c5:76:3e:a0:0f:00:89:47:03:f9:19:
                    b4:d8:16:95:05:9e:d2:c6:04:3c:10:d0:d1:c0:ee:
                    7e:a9:3e:80:2b:1a:d2:bd:43:55:64:ca:54:55:f1:
                    ca:54:87:55:75:1f:09:ea:e3:ec:ac:b8:6b:4c:2e:
                    e9:45:61:b3:70:47:de:66:fc:09:59:11:61:e6:f5:
                    10:1a:f2:74:49:f2:da:11:eb:45:da:b7:27:ca:47:
                    cf:21:53:ba:2a:8b:72:8b:b8:22:8b:0b:2c:af:56:
                    e8:46:0c:c4:ee:3e:b7:4a:23:7b:d5:8a:da:af:0a:
                    d1:ac:a7:7f:04:08:ee:7d:db:ff:a1:cd:09:47:8a:
                    47:75:9e:63:09:bc:2f:67:b1:8c:25:b9:27:4e:6c:
                    19:43:2c:82:db:8f:c7:72:ab:07:34:c8:6d:df:cc:
                    2d:32:22:3b:80:1f:f7:c9:15:5d:4e:6a:81:66:9c:
                    31:fc:8d:94:b7:40:d8:be:ff:4f:c3:a3:40:69:93:
                    88:6d:f8:e3:a5:04:49:aa:cb:c6:1a:cb:11:6d:79:
                    0e:61:cb:59:98:b4:2c:5e:3d:b7:9d:77:ff:99:4f:
                    bb:41
                Exponent: 65537 (0x10001)
    Signature Algorithm: sha256WithRSAEncryption
         0d:d0:a3:93:5d:88:94:da:14:fa:a8:13:ed:db:46:c5:3d:cf:
         1c:ed:46:e9:f5:25:8b:b5:1b:0f:18:c3:02:37:0f:ee:c7:9a:
         da:a4:08:94:51:ee:0d:c2:f7:50:c1:47:2f:2e:1d:8c:f0:49:
         79:29:60:76:d9:00:d3:3e:ee:02:e9:e1:b9:39:b3:db:ef:62:
         cc:40:b2:3e:e8:83:d5:ae:6c:74:2c:72:a5:85:bb:db:7f:c7:
         19:32:81:34:76:73:e7:48:19:df:17:f8:38:57:95:c5:de:8a:
         2f:c6:2a:71:12:ed:b3:95:89:dd:d7:f2:12:ee:1c:cf:d1:41:
         32:25:e2:93:3b:4e:5a:9d:fa:96:13:89:fe:00:c3:8a:8c:3c:
         fa:e1:b5:72:f3:77:8c:39:67:89:5d:9b:2a:b3:b5:e2:91:72:
         93:f6:02:ce:ff:55:0a:90:60:b1:b5:ba:e7:f4:0d:fe:23:74:
         04:dc:35:ac:72:46:cd:a1:2a:33:33:49:ad:92:61:8d:f6:d2:
         a8:e8:27:30:17:99:25:90:cd:9d:f8:36:f4:fa:96:21:1b:1d:
         26:81:82:81:39:4b:f6:a7:1a:fb:57:59:ad:e7:5d:45:68:b1:
         de:3f:5f:c1:c8:da:c6:4b:3d:1b:bb:1c:e8:bf:8e:ca:5e:15:
         ec:8b:b4:35
-----BEGIN CERTIFICATE-----
MIIDLjCCAhYCAQIwDQYJKoZIhvcNAQELBQAwaDELMAkGA1UEBhMCU0UxEzARBgNV
BAgMClNvbWUtU3RhdGUxDTALBgNVBAcMBFVtZWExITAfBgNVBAoMGEludGVybmV0
IFdpZGdpdHMgUHR5IEx0ZDESMBAGA1UECwwJVGVzdEhUVFAyMB4XDTE1MDIwOTE2
MDY0MloXDTI2MDEyMjE2MDY0MlowUjELMAkGA1UEBhMCU0UxFTATBgNVBAgTDFZh
c3RlcmJvdHRlbjESMBAGA1UEChMJWnVuenVuIEFCMRgwFgYDVQQDEw93d3cuZXhh
bXBsZS5jb20wggEiMA0GCSqGSIb3DQEBAQUAA4IBDwAwggEKAoIBAQDyWnxb+hQ7
GNAJy3V8XrNtqktr9NGHq1f/xDljIO1jM4/Fdj6gDwCJRwP5GbTYFpUFntLGBDwQ
0NHA7n6pPoArGtK9Q1VkylRV8cpUh1V1Hwnq4+ysuGtMLulFYbNwR95m/AlZEWHm
9RAa8nRJ8toR60XatyfKR88hU7oqi3KLuCKLCyyvVuhGDMTuPrdKI3vVitqvCtGs
p38ECO592/+hzQlHikd1nmMJvC9nsYwluSdObBlDLILbj8dyqwc0yG3fzC0yIjuA
H/fJFV1OaoFmnDH8jZS3QNi+/0/Do0Bpk4ht+OOlBEmqy8YayxFteQ5hy1mYtCxe
Pbedd/+ZT7tBAgMBAAEwDQYJKoZIhvcNAQELBQADggEBAA3Qo5NdiJTaFPqoE+3b
RsU9zxztRun1JYu1Gw8YwwI3D+7HmtqkCJRR7g3C91DBRy8uHYzwSXkpYHbZANM+
7gLp4bk5s9vvYsxAsj7og9WubHQscqWFu9t/xxkygTR2c+dIGd8X+DhXlcXeii/G
KnES7bOVid3X8hLuHM/RQTIl4pM7Tlqd+pYTif4Aw4qMPPrhtXLzd4w5Z4ldmyqz
teKRcpP2As7/VQqQYLG1uuf0Df4jdATcNaxyRs2hKjMzSa2SYY320qjoJzAXmSWQ
zZ34NvT6liEbHSaBgoE5S/anGvtXWa3nXUVosd4/X8HI2sZLPRu7HOi/jspeFeyL
tDU=
-----END CERTIFICATE-----
